; ModuleID = '39/114.c'
source_filename = "39/114.c"
target datalayout = "e-m:e-p270:32:32-p271:32:32-p272:64:64-i64:64-f80:128-n8:16:32:64-S128"
target triple = "x86_64-pc-linux-gnu"

%struct.stu = type { [25 x i8], i32, i32, i8, i8, i32, i32 }

@.str = private unnamed_addr constant [3 x i8] c"%d\00", align 1
@.str.1 = private unnamed_addr constant [18 x i8] c"%s %d %d %c %c %d\00", align 1
@.str.2 = private unnamed_addr constant [9 x i8] c"%s\0A%d\0A%d\00", align 1

; Function Attrs: noinline nounwind uwtable
define dso_local void @main() #0 {
  %1 = alloca i32, align 4
  %2 = alloca i32, align 4
  %3 = alloca i32, align 4
  %4 = alloca i32, align 4
  %5 = alloca i32, align 4
  %6 = alloca %struct.stu*, align 8
  store i32 0, i32* %3, align 4
  %7 = call i32 (i8*, ...) @__isoc99_scanf(i8* getelementptr inbounds ([3 x i8], [3 x i8]* @.str, i64 0, i64 0), i32* %2)
  %8 = load i32, i32* %2, align 4
  %9 = sext i32 %8 to i64
  %10 = call noalias i8* @calloc(i64 %9, i64 48) #3
  %11 = bitcast i8* %10 to %struct.stu*
  store %struct.stu* %11, %struct.stu** %6, align 8
  store i32 0, i32* %1, align 4
  br label %12

12:                                               ; preds = %173, %0
  %13 = load i32, i32* %1, align 4
  %14 = load i32, i32* %2, align 4
  %15 = icmp slt i32 %13, %14
  br i1 %15, label %16, label %176

16:                                               ; preds = %12
  %17 = load %struct.stu*, %struct.stu** %6, align 8
  %18 = load i32, i32* %1, align 4
  %19 = sext i32 %18 to i64
  %20 = getelementptr inbounds %struct.stu, %struct.stu* %17, i64 %19
  %21 = getelementptr inbounds %struct.stu, %struct.stu* %20, i32 0, i32 0
  %22 = getelementptr inbounds [25 x i8], [25 x i8]* %21, i64 0, i64 0
  %23 = load %struct.stu*, %struct.stu** %6, align 8
  %24 = load i32, i32* %1, align 4
  %25 = sext i32 %24 to i64
  %26 = getelementptr inbounds %struct.stu, %struct.stu* %23, i64 %25
  %27 = getelementptr inbounds %struct.stu, %struct.stu* %26, i32 0, i32 1
  %28 = load %struct.stu*, %struct.stu** %6, align 8
  %29 = load i32, i32* %1, align 4
  %30 = sext i32 %29 to i64
  %31 = getelementptr inbounds %struct.stu, %struct.stu* %28, i64 %30
  %32 = getelementptr inbounds %struct.stu, %struct.stu* %31, i32 0, i32 2
  %33 = load %struct.stu*, %struct.stu** %6, align 8
  %34 = load i32, i32* %1, align 4
  %35 = sext i32 %34 to i64
  %36 = getelementptr inbounds %struct.stu, %struct.stu* %33, i64 %35
  %37 = getelementptr inbounds %struct.stu, %struct.stu* %36, i32 0, i32 3
  %38 = load %struct.stu*, %struct.stu** %6, align 8
  %39 = load i32, i32* %1, align 4
  %40 = sext i32 %39 to i64
  %41 = getelementptr inbounds %struct.stu, %struct.stu* %38, i64 %40
  %42 = getelementptr inbounds %struct.stu, %struct.stu* %41, i32 0, i32 4
  %43 = load %struct.stu*, %struct.stu** %6, align 8
  %44 = load i32, i32* %1, align 4
  %45 = sext i32 %44 to i64
  %46 = getelementptr inbounds %struct.stu, %struct.stu* %43, i64 %45
  %47 = getelementptr inbounds %struct.stu, %struct.stu* %46, i32 0, i32 5
  %48 = call i32 (i8*, ...) @__isoc99_scanf(i8* getelementptr inbounds ([18 x i8], [18 x i8]* @.str.1, i64 0, i64 0), i8* %22, i32* %27, i32* %32, i8* %37, i8* %42, i32* %47)
  %49 = load %struct.stu*, %struct.stu** %6, align 8
  %50 = load i32, i32* %1, align 4
  %51 = sext i32 %50 to i64
  %52 = getelementptr inbounds %struct.stu, %struct.stu* %49, i64 %51
  %53 = getelementptr inbounds %struct.stu, %struct.stu* %52, i32 0, i32 1
  %54 = load i32, i32* %53, align 4
  %55 = icmp sgt i32 %54, 80
  br i1 %55, label %56, label %74

56:                                               ; preds = %16
  %57 = load %struct.stu*, %struct.stu** %6, align 8
  %58 = load i32, i32* %1, align 4
  %59 = sext i32 %58 to i64
  %60 = getelementptr inbounds %struct.stu, %struct.stu* %57, i64 %59
  %61 = getelementptr inbounds %struct.stu, %struct.stu* %60, i32 0, i32 5
  %62 = load i32, i32* %61, align 4
  %63 = icmp sge i32 %62, 1
  br i1 %63, label %64, label %74

64:                                               ; preds = %56
  %65 = load %struct.stu*, %struct.stu** %6, align 8
  %66 = load i32, i32* %1, align 4
  %67 = sext i32 %66 to i64
  %68 = getelementptr inbounds %struct.stu, %struct.stu* %65, i64 %67
  %69 = getelementptr inbounds %struct.stu, %struct.stu* %68, i32 0, i32 6
  %70 = load i32, i32* %69, align 4
  %71 = add nsw i32 %70, 8000
  store i32 %71, i32* %69, align 4
  %72 = load i32, i32* %3, align 4
  %73 = add nsw i32 %72, 8000
  store i32 %73, i32* %3, align 4
  br label %74

74:                                               ; preds = %64, %56, %16
  %75 = load %struct.stu*, %struct.stu** %6, align 8
  %76 = load i32, i32* %1, align 4
  %77 = sext i32 %76 to i64
  %78 = getelementptr inbounds %struct.stu, %struct.stu* %75, i64 %77
  %79 = getelementptr inbounds %struct.stu, %struct.stu* %78, i32 0, i32 1
  %80 = load i32, i32* %79, align 4
  %81 = icmp sgt i32 %80, 85
  br i1 %81, label %82, label %100

82:                                               ; preds = %74
  %83 = load %struct.stu*, %struct.stu** %6, align 8
  %84 = load i32, i32* %1, align 4
  %85 = sext i32 %84 to i64
  %86 = getelementptr inbounds %struct.stu, %struct.stu* %83, i64 %85
  %87 = getelementptr inbounds %struct.stu, %struct.stu* %86, i32 0, i32 2
  %88 = load i32, i32* %87, align 4
  %89 = icmp sgt i32 %88, 80
  br i1 %89, label %90, label %100

90:                                               ; preds = %82
  %91 = load %struct.stu*, %struct.stu** %6, align 8
  %92 = load i32, i32* %1, align 4
  %93 = sext i32 %92 to i64
  %94 = getelementptr inbounds %struct.stu, %struct.stu* %91, i64 %93
  %95 = getelementptr inbounds %struct.stu, %struct.stu* %94, i32 0, i32 6
  %96 = load i32, i32* %95, align 4
  %97 = add nsw i32 %96, 4000
  store i32 %97, i32* %95, align 4
  %98 = load i32, i32* %3, align 4
  %99 = add nsw i32 %98, 4000
  store i32 %99, i32* %3, align 4
  br label %100

100:                                              ; preds = %90, %82, %74
  %101 = load %struct.stu*, %struct.stu** %6, align 8
  %102 = load i32, i32* %1, align 4
  %103 = sext i32 %102 to i64
  %104 = getelementptr inbounds %struct.stu, %struct.stu* %101, i64 %103
  %105 = getelementptr inbounds %struct.stu, %struct.stu* %104, i32 0, i32 1
  %106 = load i32, i32* %105, align 4
  %107 = icmp sgt i32 %106, 90
  br i1 %107, label %108, label %118

108:                                              ; preds = %100
  %109 = load %struct.stu*, %struct.stu** %6, align 8
  %110 = load i32, i32* %1, align 4
  %111 = sext i32 %110 to i64
  %112 = getelementptr inbounds %struct.stu, %struct.stu* %109, i64 %111
  %113 = getelementptr inbounds %struct.stu, %struct.stu* %112, i32 0, i32 6
  %114 = load i32, i32* %113, align 4
  %115 = add nsw i32 %114, 2000
  store i32 %115, i32* %113, align 4
  %116 = load i32, i32* %3, align 4
  %117 = add nsw i32 %116, 2000
  store i32 %117, i32* %3, align 4
  br label %118

118:                                              ; preds = %108, %100
  %119 = load %struct.stu*, %struct.stu** %6, align 8
  %120 = load i32, i32* %1, align 4
  %121 = sext i32 %120 to i64
  %122 = getelementptr inbounds %struct.stu, %struct.stu* %119, i64 %121
  %123 = getelementptr inbounds %struct.stu, %struct.stu* %122, i32 0, i32 1
  %124 = load i32, i32* %123, align 4
  %125 = icmp sgt i32 %124, 85
  br i1 %125, label %126, label %145

126:                                              ; preds = %118
  %127 = load %struct.stu*, %struct.stu** %6, align 8
  %128 = load i32, i32* %1, align 4
  %129 = sext i32 %128 to i64
  %130 = getelementptr inbounds %struct.stu, %struct.stu* %127, i64 %129
  %131 = getelementptr inbounds %struct.stu, %struct.stu* %130, i32 0, i32 4
  %132 = load i8, i8* %131, align 1
  %133 = sext i8 %132 to i32
  %134 = icmp eq i32 %133, 89
  br i1 %134, label %135, label %145

135:                                              ; preds = %126
  %136 = load %struct.stu*, %struct.stu** %6, align 8
  %137 = load i32, i32* %1, align 4
  %138 = sext i32 %137 to i64
  %139 = getelementptr inbounds %struct.stu, %struct.stu* %136, i64 %138
  %140 = getelementptr inbounds %struct.stu, %struct.stu* %139, i32 0, i32 6
  %141 = load i32, i32* %140, align 4
  %142 = add nsw i32 %141, 1000
  store i32 %142, i32* %140, align 4
  %143 = load i32, i32* %3, align 4
  %144 = add nsw i32 %143, 1000
  store i32 %144, i32* %3, align 4
  br label %145

145:                                              ; preds = %135, %126, %118
  %146 = load %struct.stu*, %struct.stu** %6, align 8
  %147 = load i32, i32* %1, align 4
  %148 = sext i32 %147 to i64
  %149 = getelementptr inbounds %struct.stu, %struct.stu* %146, i64 %148
  %150 = getelementptr inbounds %struct.stu, %struct.stu* %149, i32 0, i32 2
  %151 = load i32, i32* %150, align 4
  %152 = icmp sgt i32 %151, 80
  br i1 %152, label %153, label %172

153:                                              ; preds = %145
  %154 = load %struct.stu*, %struct.stu** %6, align 8
  %155 = load i32, i32* %1, align 4
  %156 = sext i32 %155 to i64
  %157 = getelementptr inbounds %struct.stu, %struct.stu* %154, i64 %156
  %158 = getelementptr inbounds %struct.stu, %struct.stu* %157, i32 0, i32 3
  %159 = load i8, i8* %158, align 4
  %160 = sext i8 %159 to i32
  %161 = icmp eq i32 %160, 89
  br i1 %161, label %162, label %172

162:                                              ; preds = %153
  %163 = load %struct.stu*, %struct.stu** %6, align 8
  %164 = load i32, i32* %1, align 4
  %165 = sext i32 %164 to i64
  %166 = getelementptr inbounds %struct.stu, %struct.stu* %163, i64 %165
  %167 = getelementptr inbounds %struct.stu, %struct.stu* %166, i32 0, i32 6
  %168 = load i32, i32* %167, align 4
  %169 = add nsw i32 %168, 850
  store i32 %169, i32* %167, align 4
  %170 = load i32, i32* %3, align 4
  %171 = add nsw i32 %170, 850
  store i32 %171, i32* %3, align 4
  br label %172

172:                                              ; preds = %162, %153, %145
  br label %173

173:                                              ; preds = %172
  %174 = load i32, i32* %1, align 4
  %175 = add nsw i32 %174, 1
  store i32 %175, i32* %1, align 4
  br label %12

176:                                              ; preds = %12
  %177 = load %struct.stu*, %struct.stu** %6, align 8
  %178 = getelementptr inbounds %struct.stu, %struct.stu* %177, i64 0
  %179 = getelementptr inbounds %struct.stu, %struct.stu* %178, i32 0, i32 6
  %180 = load i32, i32* %179, align 4
  store i32 %180, i32* %5, align 4
  store i32 1, i32* %1, align 4
  br label %181

181:                                              ; preds = %203, %176
  %182 = load i32, i32* %1, align 4
  %183 = load i32, i32* %2, align 4
  %184 = icmp slt i32 %182, %183
  br i1 %184, label %185, label %206

185:                                              ; preds = %181
  %186 = load %struct.stu*, %struct.stu** %6, align 8
  %187 = load i32, i32* %1, align 4
  %188 = sext i32 %187 to i64
  %189 = getelementptr inbounds %struct.stu, %struct.stu* %186, i64 %188
  %190 = getelementptr inbounds %struct.stu, %struct.stu* %189, i32 0, i32 6
  %191 = load i32, i32* %190, align 4
  %192 = load i32, i32* %5, align 4
  %193 = icmp sgt i32 %191, %192
  br i1 %193, label %194, label %202

194:                                              ; preds = %185
  %195 = load i32, i32* %1, align 4
  store i32 %195, i32* %4, align 4
  %196 = load %struct.stu*, %struct.stu** %6, align 8
  %197 = load i32, i32* %1, align 4
  %198 = sext i32 %197 to i64
  %199 = getelementptr inbounds %struct.stu, %struct.stu* %196, i64 %198
  %200 = getelementptr inbounds %struct.stu, %struct.stu* %199, i32 0, i32 6
  %201 = load i32, i32* %200, align 4
  store i32 %201, i32* %5, align 4
  br label %202

202:                                              ; preds = %194, %185
  br label %203

203:                                              ; preds = %202
  %204 = load i32, i32* %1, align 4
  %205 = add nsw i32 %204, 1
  store i32 %205, i32* %1, align 4
  br label %181

206:                                              ; preds = %181
  %207 = load %struct.stu*, %struct.stu** %6, align 8
  %208 = load i32, i32* %4, align 4
  %209 = sext i32 %208 to i64
  %210 = getelementptr inbounds %struct.stu, %struct.stu* %207, i64 %209
  %211 = getelementptr inbounds %struct.stu, %struct.stu* %210, i32 0, i32 0
  %212 = getelementptr inbounds [25 x i8], [25 x i8]* %211, i64 0, i64 0
  %213 = load %struct.stu*, %struct.stu** %6, align 8
  %214 = load i32, i32* %4, align 4
  %215 = sext i32 %214 to i64
  %216 = getelementptr inbounds %struct.stu, %struct.stu* %213, i64 %215
  %217 = getelementptr inbounds %struct.stu, %struct.stu* %216, i32 0, i32 6
  %218 = load i32, i32* %217, align 4
  %219 = load i32, i32* %3, align 4
  %220 = call i32 (i8*, ...) @printf(i8* getelementptr inbounds ([9 x i8], [9 x i8]* @.str.2, i64 0, i64 0), i8* %212, i32 %218, i32 %219)
  ret void
}

declare dso_local i32 @__isoc99_scanf(i8*, ...) #1

; Function Attrs: nounwind
declare dso_local noalias i8* @calloc(i64, i64) #2

declare dso_local i32 @printf(i8*, ...) #1


!llvm.module.flags = !{!0}
!llvm.ident = !{!1}

!0 = !{i32 1, !"wchar_size", i32 4}
!1 = !{!"clang version 10.0.0-4ubuntu1 "}
